target datalayout = "e-m:e-p270:32:32-p271:32:32-p272:64:64-i64:64-i128:128-f80:128-n8:16:32:64-S128"
target triple = "x86_64-pc-linux-gnu"

%struct.JNIEnv_ = type { ptr }
%struct.JNINativeInterface_ = type { ptr, ptr, ptr, ptr, ptr, ptr, ptr, ptr, ptr, ptr, ptr, ptr, ptr, ptr, ptr, ptr, ptr, ptr, ptr, ptr, ptr, ptr, ptr, ptr, ptr, ptr, ptr, ptr, ptr, ptr, ptr, ptr, ptr, ptr, ptr, ptr, ptr, ptr, ptr, ptr, ptr, ptr, ptr, ptr, ptr, ptr, ptr, ptr, ptr, ptr, ptr, ptr, ptr, ptr, ptr, ptr, ptr, ptr, ptr, ptr, ptr, ptr, ptr, ptr, ptr, ptr, ptr, ptr, ptr, ptr, ptr, ptr, ptr, ptr, ptr, ptr, ptr, ptr, ptr, ptr, ptr, ptr, ptr, ptr, ptr, ptr, ptr, ptr, ptr, ptr, ptr, ptr, ptr, ptr, ptr, ptr, ptr, ptr, ptr, ptr, ptr, ptr, ptr, ptr, ptr, ptr, ptr, ptr, ptr, ptr, ptr, ptr, ptr, ptr, ptr, ptr, ptr, ptr, ptr, ptr, ptr, ptr, ptr, ptr, ptr, ptr, ptr, ptr, ptr, ptr, ptr, ptr, ptr, ptr, ptr, ptr, ptr, ptr, ptr, ptr, ptr, ptr, ptr, ptr, ptr, ptr, ptr, ptr, ptr, ptr, ptr, ptr, ptr, ptr, ptr, ptr, ptr, ptr, ptr, ptr, ptr, ptr, ptr, ptr, ptr, ptr, ptr, ptr, ptr, ptr, ptr, ptr, ptr, ptr, ptr, ptr, ptr, ptr, ptr, ptr, ptr, ptr, ptr, ptr, ptr, ptr, ptr, ptr, ptr, ptr, ptr, ptr, ptr, ptr, ptr, ptr, ptr, ptr, ptr, ptr, ptr, ptr, ptr, ptr, ptr, ptr, ptr, ptr, ptr, ptr, ptr, ptr, ptr, ptr, ptr, ptr, ptr, ptr, ptr, ptr, ptr, ptr, ptr, ptr, ptr, ptr, ptr, ptr, ptr, ptr, ptr, ptr, ptr, ptr }
%"class.Ipopt::SmartPtr.9" = type { ptr }

; Function Attrs: mustprogress uwtable
define linkonce_odr void @_ZN7JNIEnv_20SetDoubleArrayRegionEP13_jdoubleArrayiiPKd(ptr noundef nonnull align 8 dereferenceable(8) %0, ptr noundef %1, i32 noundef %2, i32 noundef %3, ptr noundef %4) #4 comdat align 2 {
  %6 = alloca ptr, align 8
  %7 = alloca ptr, align 8
  %8 = alloca i32, align 4
  %9 = alloca i32, align 4
  %10 = alloca ptr, align 8
  store ptr %0, ptr %6, align 8, !tbaa !8
  store ptr %1, ptr %7, align 8, !tbaa !101
  store i32 %2, ptr %8, align 4, !tbaa !12
  store i32 %3, ptr %9, align 4, !tbaa !12
  store ptr %4, ptr %10, align 8, !tbaa !99
  %11 = load ptr, ptr %6, align 8
  %12 = getelementptr inbounds nuw %struct.JNIEnv_, ptr %11, i32 0, i32 0
  %13 = load ptr, ptr %12, align 8, !tbaa !84
  %14 = getelementptr inbounds nuw %struct.JNINativeInterface_, ptr %13, i32 0, i32 214
  %15 = load ptr, ptr %14, align 8, !tbaa !107
  %16 = load ptr, ptr %7, align 8, !tbaa !101
  %17 = load i32, ptr %8, align 4, !tbaa !12
  %18 = load i32, ptr %9, align 4, !tbaa !12
  %19 = load ptr, ptr %10, align 8, !tbaa !99
  call void %15(ptr noundef %11, ptr noundef %16, i32 noundef %17, i32 noundef %18, ptr noundef %19)
  ret void
}

; Function Attrs: mustprogress nounwind uwtable
define linkonce_odr noundef ptr @_ZN5Ipopt9GetRawPtrI6JipoptEEPT_RKNS_8SmartPtrIS2_EE(ptr noundef nonnull align 8 dereferenceable(8) %0) #7 comdat {
  %2 = alloca ptr, align 8
  store ptr %0, ptr %2, align 8, !tbaa !128
  %3 = load ptr, ptr %2, align 8, !tbaa !128
  %4 = getelementptr inbounds nuw %"class.Ipopt::SmartPtr.9", ptr %3, i32 0, i32 0
  %5 = load ptr, ptr %4, align 8, !tbaa !130
  ret ptr %5
}

; Function Attrs: mustprogress uwtable
define zeroext i8 @Java_org_coinor_Ipopt_GetCurrIterate(ptr noundef %0, ptr noundef %1, i64 noundef %2, i64 noundef %3, i64 noundef %4, i8 noundef zeroext %5, i32 noundef %6, ptr noundef %7, ptr noundef %8, ptr noundef %9, i32 noundef %10, ptr noundef %11, ptr noundef %12) #4 {
  %14 = alloca ptr, align 8
  %15 = alloca ptr, align 8
  %16 = alloca i64, align 8
  %17 = alloca i64, align 8
  %18 = alloca i64, align 8
  %19 = alloca i8, align 1
  %20 = alloca i32, align 4
  %21 = alloca ptr, align 8
  %22 = alloca ptr, align 8
  %23 = alloca ptr, align 8
  %24 = alloca i32, align 4
  %25 = alloca ptr, align 8
  %26 = alloca ptr, align 8
  %27 = alloca ptr, align 8
  %28 = alloca ptr, align 8
  %29 = alloca ptr, align 8
  %30 = alloca i32, align 4
  %31 = alloca i32, align 4
  %32 = alloca ptr, align 8
  %33 = alloca ptr, align 8
  %34 = alloca ptr, align 8
  %35 = alloca ptr, align 8
  %36 = alloca ptr, align 8
  %37 = alloca i8, align 1
  store ptr %0, ptr %14, align 8, !tbaa !8
  store ptr %1, ptr %15, align 8, !tbaa !10
  store i64 %2, ptr %16, align 8, !tbaa !132
  store i64 %3, ptr %17, align 8, !tbaa !132
  store i64 %4, ptr %18, align 8, !tbaa !132
  store i8 %5, ptr %19, align 1, !tbaa !105
  store i32 %6, ptr %20, align 4, !tbaa !12
  store ptr %7, ptr %21, align 8, !tbaa !101
  store ptr %8, ptr %22, align 8, !tbaa !101
  store ptr %9, ptr %23, align 8, !tbaa !101
  store i32 %10, ptr %24, align 4, !tbaa !12
  store ptr %11, ptr %25, align 8, !tbaa !101
  store ptr %12, ptr %26, align 8, !tbaa !101
  call void @llvm.lifetime.start.p0(i64 8, ptr %27) #3
  %38 = load i64, ptr %16, align 8, !tbaa !132
  %39 = inttoptr i64 %38 to ptr
  %40 = call noundef ptr @_ZN5Ipopt9GetRawPtrI6JipoptEEPT_RKNS_8SmartPtrIS2_EE(ptr noundef nonnull align 8 dereferenceable(8) %39)
  store ptr %40, ptr %27, align 8, !tbaa !3
  call void @llvm.lifetime.start.p0(i64 8, ptr %28) #3
  %41 = load i64, ptr %17, align 8, !tbaa !132
  %42 = inttoptr i64 %41 to ptr
  store ptr %42, ptr %28, align 8, !tbaa !116
  call void @llvm.lifetime.start.p0(i64 8, ptr %29) #3
  %43 = load i64, ptr %18, align 8, !tbaa !132
  %44 = inttoptr i64 %43 to ptr
  store ptr %44, ptr %29, align 8, !tbaa !117
  call void @llvm.lifetime.start.p0(i64 4, ptr %30) #3
  %45 = load i32, ptr %20, align 4, !tbaa !12
  store i32 %45, ptr %30, align 4, !tbaa !12
  call void @llvm.lifetime.start.p0(i64 4, ptr %31) #3
  %46 = load i32, ptr %24, align 4, !tbaa !12
  store i32 %46, ptr %31, align 4, !tbaa !12
  call void @llvm.lifetime.start.p0(i64 8, ptr %32) #3
  store ptr null, ptr %32, align 8, !tbaa !99
  call void @llvm.lifetime.start.p0(i64 8, ptr %33) #3
  store ptr null, ptr %33, align 8, !tbaa !99
  call void @llvm.lifetime.start.p0(i64 8, ptr %34) #3
  store ptr null, ptr %34, align 8, !tbaa !99
  call void @llvm.lifetime.start.p0(i64 8, ptr %35) #3
  store ptr null, ptr %35, align 8, !tbaa !99
  call void @llvm.lifetime.start.p0(i64 8, ptr %36) #3
  store ptr null, ptr %36, align 8, !tbaa !99
  %47 = load ptr, ptr %21, align 8, !tbaa !101
  %48 = icmp ne ptr %47, null
  br i1 %48, label %49, label %57

49:                                               ; preds = %13
  %50 = load i32, ptr %30, align 4, !tbaa !12
  %51 = sext i32 %50 to i64
  %52 = call { i64, i1 } @llvm.umul.with.overflow.i64(i64 %51, i64 8)
  %53 = extractvalue { i64, i1 } %52, 1
  %54 = extractvalue { i64, i1 } %52, 0
  %55 = select i1 %53, i64 -1, i64 %54
  %56 = call noalias noundef nonnull ptr @_Znam(i64 noundef %55) #18
  store ptr %56, ptr %32, align 8, !tbaa !99
  br label %57

57:                                               ; preds = %49, %13
  %58 = load ptr, ptr %22, align 8, !tbaa !101
  %59 = icmp ne ptr %58, null
  br i1 %59, label %60, label %68

60:                                               ; preds = %57
  %61 = load i32, ptr %30, align 4, !tbaa !12
  %62 = sext i32 %61 to i64
  %63 = call { i64, i1 } @llvm.umul.with.overflow.i64(i64 %62, i64 8)
  %64 = extractvalue { i64, i1 } %63, 1
  %65 = extractvalue { i64, i1 } %63, 0
  %66 = select i1 %64, i64 -1, i64 %65
  %67 = call noalias noundef nonnull ptr @_Znam(i64 noundef %66) #18
  store ptr %67, ptr %33, align 8, !tbaa !99
  br label %68

68:                                               ; preds = %60, %57
  %69 = load ptr, ptr %23, align 8, !tbaa !101
  %70 = icmp ne ptr %69, null
  br i1 %70, label %71, label %79

71:                                               ; preds = %68
  %72 = load i32, ptr %30, align 4, !tbaa !12
  %73 = sext i32 %72 to i64
  %74 = call { i64, i1 } @llvm.umul.with.overflow.i64(i64 %73, i64 8)
  %75 = extractvalue { i64, i1 } %74, 1
  %76 = extractvalue { i64, i1 } %74, 0
  %77 = select i1 %75, i64 -1, i64 %76
  %78 = call noalias noundef nonnull ptr @_Znam(i64 noundef %77) #18
  store ptr %78, ptr %34, align 8, !tbaa !99
  br label %79

79:                                               ; preds = %71, %68
  %80 = load ptr, ptr %25, align 8, !tbaa !101
  %81 = icmp ne ptr %80, null
  br i1 %81, label %82, label %90

82:                                               ; preds = %79
  %83 = load i32, ptr %31, align 4, !tbaa !12
  %84 = sext i32 %83 to i64
  %85 = call { i64, i1 } @llvm.umul.with.overflow.i64(i64 %84, i64 8)
  %86 = extractvalue { i64, i1 } %85, 1
  %87 = extractvalue { i64, i1 } %85, 0
  %88 = select i1 %86, i64 -1, i64 %87
  %89 = call noalias noundef nonnull ptr @_Znam(i64 noundef %88) #18
  store ptr %89, ptr %35, align 8, !tbaa !99
  br label %90

90:                                               ; preds = %82, %79
  %91 = load ptr, ptr %26, align 8, !tbaa !101
  %92 = icmp ne ptr %91, null
  br i1 %92, label %93, label %101

93:                                               ; preds = %90
  %94 = load i32, ptr %31, align 4, !tbaa !12
  %95 = sext i32 %94 to i64
  %96 = call { i64, i1 } @llvm.umul.with.overflow.i64(i64 %95, i64 8)
  %97 = extractvalue { i64, i1 } %96, 1
  %98 = extractvalue { i64, i1 } %96, 0
  %99 = select i1 %97, i64 -1, i64 %98
  %100 = call noalias noundef nonnull ptr @_Znam(i64 noundef %99) #18
  store ptr %100, ptr %36, align 8, !tbaa !99
  br label %101

101:                                              ; preds = %93, %90
  call void @llvm.lifetime.start.p0(i64 1, ptr %37) #3
  %102 = load ptr, ptr %27, align 8, !tbaa !3
  %103 = load ptr, ptr %28, align 8, !tbaa !116
  %104 = load ptr, ptr %29, align 8, !tbaa !117
  %105 = load i8, ptr %19, align 1, !tbaa !105
  %106 = icmp ne i8 %105, 0
  %107 = load i32, ptr %30, align 4, !tbaa !12
  %108 = load ptr, ptr %32, align 8, !tbaa !99
  %109 = load ptr, ptr %33, align 8, !tbaa !99
  %110 = load ptr, ptr %34, align 8, !tbaa !99
  %111 = load i32, ptr %31, align 4, !tbaa !12
  %112 = load ptr, ptr %35, align 8, !tbaa !99
  %113 = load ptr, ptr %36, align 8, !tbaa !99
  %114 = call noundef zeroext i1 @_ZNK5Ipopt4TNLP16get_curr_iterateEPKNS_9IpoptDataEPNS_25IpoptCalculatedQuantitiesEbiPdS6_S6_iS6_S6_(ptr noundef nonnull align 8 dereferenceable(12) %102, ptr noundef %103, ptr noundef %104, i1 noundef zeroext %106, i32 noundef %107, ptr noundef %108, ptr noundef %109, ptr noundef %110, i32 noundef %111, ptr noundef %112, ptr noundef %113)
  %115 = zext i1 %114 to i8
  store i8 %115, ptr %37, align 1, !tbaa !60
  %116 = load i8, ptr %37, align 1, !tbaa !60, !range !82, !noundef !83
  %117 = trunc i8 %116 to i1
  br i1 %117, label %118, label %159

118:                                              ; preds = %101
  %119 = load ptr, ptr %21, align 8, !tbaa !101
  %120 = icmp ne ptr %119, null
  br i1 %120, label %121, label %126

121:                                              ; preds = %118
  %122 = load ptr, ptr %14, align 8, !tbaa !8
  %123 = load ptr, ptr %21, align 8, !tbaa !101
  %124 = load i32, ptr %30, align 4, !tbaa !12
  %125 = load ptr, ptr %32, align 8, !tbaa !99
  call void @_ZN7JNIEnv_20SetDoubleArrayRegionEP13_jdoubleArrayiiPKd(ptr noundef nonnull align 8 dereferenceable(8) %122, ptr noundef %123, i32 noundef 0, i32 noundef %124, ptr noundef %125)
  br label %126

126:                                              ; preds = %121, %118
  %127 = load ptr, ptr %22, align 8, !tbaa !101
  %128 = icmp ne ptr %127, null
  br i1 %128, label %129, label %134

129:                                              ; preds = %126
  %130 = load ptr, ptr %14, align 8, !tbaa !8
  %131 = load ptr, ptr %22, align 8, !tbaa !101
  %132 = load i32, ptr %30, align 4, !tbaa !12
  %133 = load ptr, ptr %33, align 8, !tbaa !99
  call void @_ZN7JNIEnv_20SetDoubleArrayRegionEP13_jdoubleArrayiiPKd(ptr noundef nonnull align 8 dereferenceable(8) %130, ptr noundef %131, i32 noundef 0, i32 noundef %132, ptr noundef %133)
  br label %134

134:                                              ; preds = %129, %126
  %135 = load ptr, ptr %23, align 8, !tbaa !101
  %136 = icmp ne ptr %135, null
  br i1 %136, label %137, label %142

137:                                              ; preds = %134
  %138 = load ptr, ptr %14, align 8, !tbaa !8
  %139 = load ptr, ptr %23, align 8, !tbaa !101
  %140 = load i32, ptr %30, align 4, !tbaa !12
  %141 = load ptr, ptr %34, align 8, !tbaa !99
  call void @_ZN7JNIEnv_20SetDoubleArrayRegionEP13_jdoubleArrayiiPKd(ptr noundef nonnull align 8 dereferenceable(8) %138, ptr noundef %139, i32 noundef 0, i32 noundef %140, ptr noundef %141)
  br label %142

142:                                              ; preds = %137, %134
  %143 = load ptr, ptr %25, align 8, !tbaa !101
  %144 = icmp ne ptr %143, null
  br i1 %144, label %145, label %150

145:                                              ; preds = %142
  %146 = load ptr, ptr %14, align 8, !tbaa !8
  %147 = load ptr, ptr %25, align 8, !tbaa !101
  %148 = load i32, ptr %31, align 4, !tbaa !12
  %149 = load ptr, ptr %35, align 8, !tbaa !99
  call void @_ZN7JNIEnv_20SetDoubleArrayRegionEP13_jdoubleArrayiiPKd(ptr noundef nonnull align 8 dereferenceable(8) %146, ptr noundef %147, i32 noundef 0, i32 noundef %148, ptr noundef %149)
  br label %150

150:                                              ; preds = %145, %142
  %151 = load ptr, ptr %26, align 8, !tbaa !101
  %152 = icmp ne ptr %151, null
  br i1 %152, label %153, label %158

153:                                              ; preds = %150
  %154 = load ptr, ptr %14, align 8, !tbaa !8
  %155 = load ptr, ptr %26, align 8, !tbaa !101
  %156 = load i32, ptr %31, align 4, !tbaa !12
  %157 = load ptr, ptr %36, align 8, !tbaa !99
  call void @_ZN7JNIEnv_20SetDoubleArrayRegionEP13_jdoubleArrayiiPKd(ptr noundef nonnull align 8 dereferenceable(8) %154, ptr noundef %155, i32 noundef 0, i32 noundef %156, ptr noundef %157)
  br label %158

158:                                              ; preds = %153, %150
  br label %159

159:                                              ; preds = %158, %101
  %160 = load ptr, ptr %36, align 8, !tbaa !99
  %161 = icmp eq ptr %160, null
  br i1 %161, label %163, label %162

162:                                              ; preds = %159
  call void @_ZdaPv(ptr noundef %160) #19
  br label %163

163:                                              ; preds = %162, %159
  %164 = load ptr, ptr %35, align 8, !tbaa !99
  %165 = icmp eq ptr %164, null
  br i1 %165, label %167, label %166

166:                                              ; preds = %163
  call void @_ZdaPv(ptr noundef %164) #19
  br label %167

167:                                              ; preds = %166, %163
  %168 = load ptr, ptr %34, align 8, !tbaa !99
  %169 = icmp eq ptr %168, null
  br i1 %169, label %171, label %170

170:                                              ; preds = %167
  call void @_ZdaPv(ptr noundef %168) #19
  br label %171

171:                                              ; preds = %170, %167
  %172 = load ptr, ptr %33, align 8, !tbaa !99
  %173 = icmp eq ptr %172, null
  br i1 %173, label %175, label %174

174:                                              ; preds = %171
  call void @_ZdaPv(ptr noundef %172) #19
  br label %175

175:                                              ; preds = %174, %171
  %176 = load ptr, ptr %32, align 8, !tbaa !99
  %177 = icmp eq ptr %176, null
  br i1 %177, label %179, label %178

178:                                              ; preds = %175
  call void @_ZdaPv(ptr noundef %176) #19
  br label %179

179:                                              ; preds = %178, %175
  %180 = load i8, ptr %37, align 1, !tbaa !60, !range !82, !noundef !83
  %181 = trunc i8 %180 to i1
  %182 = zext i1 %181 to i8
  call void @llvm.lifetime.end.p0(i64 1, ptr %37) #3
  call void @llvm.lifetime.end.p0(i64 8, ptr %36) #3
  call void @llvm.lifetime.end.p0(i64 8, ptr %35) #3
  call void @llvm.lifetime.end.p0(i64 8, ptr %34) #3
  call void @llvm.lifetime.end.p0(i64 8, ptr %33) #3
  call void @llvm.lifetime.end.p0(i64 8, ptr %32) #3
  call void @llvm.lifetime.end.p0(i64 4, ptr %31) #3
  call void @llvm.lifetime.end.p0(i64 4, ptr %30) #3
  call void @llvm.lifetime.end.p0(i64 8, ptr %29) #3
  call void @llvm.lifetime.end.p0(i64 8, ptr %28) #3
  call void @llvm.lifetime.end.p0(i64 8, ptr %27) #3
  ret i8 %182
}