; Function Attrs: mustprogress uwtable
define zeroext range(i8 0, 2) i8 @Java_org_coinor_Ipopt_GetCurrIterate(ptr noundef %0, ptr noundef readnone captures(none) %1, i64 noundef %2, i64 noundef %3, i64 noundef %4, i8 noundef zeroext %5, i32 noundef %6, ptr noundef %7, ptr noundef %8, ptr noundef %9, i32 noundef %10, ptr noundef %11, ptr noundef %12) local_unnamed_addr #3 {
  %14 = inttoptr i64 %2 to ptr
  %15 = load ptr, ptr %14, align 8, !tbaa !115
  %16 = inttoptr i64 %3 to ptr
  %17 = inttoptr i64 %4 to ptr
  %.not = icmp eq ptr %7, null
  br i1 %.not, label %24, label %18

18:                                               ; preds = %13
  %19 = zext nneg i32 %6 to i64
  %20 = icmp slt i32 %6, 0
  %21 = shl nuw nsw i64 %19, 3
  %22 = select i1 %20, i64 -1, i64 %21
  %23 = tail call noalias noundef nonnull ptr @_Znam(i64 noundef %22) #16
  br label %24

24:                                               ; preds = %18, %13
  %.0 = phi ptr [ %23, %18 ], [ null, %13 ]
  %.not66 = icmp eq ptr %8, null
  br i1 %.not66, label %31, label %25

25:                                               ; preds = %24
  %26 = zext nneg i32 %6 to i64
  %27 = icmp slt i32 %6, 0
  %28 = shl nuw nsw i64 %26, 3
  %29 = select i1 %27, i64 -1, i64 %28
  %30 = tail call noalias noundef nonnull ptr @_Znam(i64 noundef %29) #16
  br label %31

31:                                               ; preds = %25, %24
  %.060 = phi ptr [ %30, %25 ], [ null, %24 ]
  %.not67 = icmp eq ptr %9, null
  br i1 %.not67, label %38, label %32

32:                                               ; preds = %31
  %33 = zext nneg i32 %6 to i64
  %34 = icmp slt i32 %6, 0
  %35 = shl nuw nsw i64 %33, 3
  %36 = select i1 %34, i64 -1, i64 %35
  %37 = tail call noalias noundef nonnull ptr @_Znam(i64 noundef %36) #16
  br label %38

38:                                               ; preds = %32, %31
  %.059 = phi ptr [ %37, %32 ], [ null, %31 ]
  %.not68 = icmp eq ptr %11, null
  br i1 %.not68, label %45, label %39

39:                                               ; preds = %38
  %40 = zext nneg i32 %10 to i64
  %41 = icmp slt i32 %10, 0
  %42 = shl nuw nsw i64 %40, 3
  %43 = select i1 %41, i64 -1, i64 %42
  %44 = tail call noalias noundef nonnull ptr @_Znam(i64 noundef %43) #16
  br label %45

45:                                               ; preds = %39, %38
  %.058 = phi ptr [ %44, %39 ], [ null, %38 ]
  %.not69 = icmp eq ptr %12, null
  br i1 %.not69, label %52, label %46

46:                                               ; preds = %45
  %47 = zext nneg i32 %10 to i64
  %48 = icmp slt i32 %10, 0
  %49 = shl nuw nsw i64 %47, 3
  %50 = select i1 %48, i64 -1, i64 %49
  %51 = tail call noalias noundef nonnull ptr @_Znam(i64 noundef %50) #16
  br label %52

52:                                               ; preds = %46, %45
  %.057 = phi ptr [ %51, %46 ], [ null, %45 ]
  %53 = icmp ne i8 %5, 0
  %54 = tail call noundef zeroext i1 @_ZNK5Ipopt4TNLP16get_curr_iterateEPKNS_9IpoptDataEPNS_25IpoptCalculatedQuantitiesEbiPdS6_S6_iS6_S6_(ptr noundef nonnull align 8 dereferenceable(12) %15, ptr noundef %16, ptr noundef %17, i1 noundef zeroext %53, i32 noundef %6, ptr noundef %.0, ptr noundef %.060, ptr noundef %.059, i32 noundef %10, ptr noundef %.058, ptr noundef %.057)
  br i1 %54, label %55, label %80

55:                                               ; preds = %52
  br i1 %.not, label %60, label %56

56:                                               ; preds = %55
  %57 = load ptr, ptr %0, align 8, !tbaa !48
  %58 = getelementptr inbounds nuw i8, ptr %57, i64 1712
  %59 = load ptr, ptr %58, align 8, !tbaa !98
  tail call void %59(ptr noundef nonnull align 8 dereferenceable(8) %0, ptr noundef nonnull %7, i32 noundef 0, i32 noundef %6, ptr noundef %.0)
  br label %60

60:                                               ; preds = %56, %55
  br i1 %.not66, label %65, label %61

61:                                               ; preds = %60
  %62 = load ptr, ptr %0, align 8, !tbaa !48
  %63 = getelementptr inbounds nuw i8, ptr %62, i64 1712
  %64 = load ptr, ptr %63, align 8, !tbaa !98
  tail call void %64(ptr noundef nonnull align 8 dereferenceable(8) %0, ptr noundef nonnull %8, i32 noundef 0, i32 noundef %6, ptr noundef %.060)
  br label %65

65:                                               ; preds = %61, %60
  br i1 %.not67, label %70, label %66

66:                                               ; preds = %65
  %67 = load ptr, ptr %0, align 8, !tbaa !48
  %68 = getelementptr inbounds nuw i8, ptr %67, i64 1712
  %69 = load ptr, ptr %68, align 8, !tbaa !98
  tail call void %69(ptr noundef nonnull align 8 dereferenceable(8) %0, ptr noundef nonnull %9, i32 noundef 0, i32 noundef %6, ptr noundef %.059)
  br label %70

70:                                               ; preds = %66, %65
  br i1 %.not68, label %75, label %71

71:                                               ; preds = %70
  %72 = load ptr, ptr %0, align 8, !tbaa !48
  %73 = getelementptr inbounds nuw i8, ptr %72, i64 1712
  %74 = load ptr, ptr %73, align 8, !tbaa !98
  tail call void %74(ptr noundef nonnull align 8 dereferenceable(8) %0, ptr noundef nonnull %11, i32 noundef 0, i32 noundef %10, ptr noundef %.058)
  br label %75

75:                                               ; preds = %71, %70
  br i1 %.not69, label %80, label %76

76:                                               ; preds = %75
  %77 = load ptr, ptr %0, align 8, !tbaa !48
  %78 = getelementptr inbounds nuw i8, ptr %77, i64 1712
  %79 = load ptr, ptr %78, align 8, !tbaa !98
  tail call void %79(ptr noundef nonnull align 8 dereferenceable(8) %0, ptr noundef nonnull %12, i32 noundef 0, i32 noundef %10, ptr noundef %.057)
  br label %80

80:                                               ; preds = %75, %76, %52
  %81 = icmp eq ptr %.057, null
  br i1 %81, label %83, label %82

82:                                               ; preds = %80
  tail call void @_ZdaPv(ptr noundef nonnull %.057) #18
  br label %83

83:                                               ; preds = %82, %80
  %84 = icmp eq ptr %.058, null
  br i1 %84, label %86, label %85

85:                                               ; preds = %83
  tail call void @_ZdaPv(ptr noundef nonnull %.058) #18
  br label %86

86:                                               ; preds = %85, %83
  %87 = icmp eq ptr %.059, null
  br i1 %87, label %89, label %88

88:                                               ; preds = %86
  tail call void @_ZdaPv(ptr noundef nonnull %.059) #18
  br label %89

89:                                               ; preds = %88, %86
  %90 = icmp eq ptr %.060, null
  br i1 %90, label %92, label %91

91:                                               ; preds = %89
  tail call void @_ZdaPv(ptr noundef nonnull %.060) #18
  br label %92

92:                                               ; preds = %91, %89
  %93 = icmp eq ptr %.0, null
  br i1 %93, label %95, label %94

94:                                               ; preds = %92
  tail call void @_ZdaPv(ptr noundef nonnull %.0) #18
  br label %95

95:                                               ; preds = %94, %92
  %96 = zext i1 %54 to i8
  ret i8 %96
}